(dp0
S'mean_reward_per_episode_window_list'
p1
(lp2
F-141.0
aF-143.0
asS'steps_taken_per_episode_list'
p3
(lp4
I144
aI148
asS'reward_per_episode_list'
p5
cnumpy.core.multiarray
_reconstruct
p6
(cnumpy
ndarray
p7
(I0
tp8
S'b'
p9
tp10
Rp11
(I1
(I2
tp12
cnumpy
dtype
p13
(S'f8'
p14
I0
I1
tp15
Rp16
(I3
S'<'
p17
NNNI-1
I-1
I0
tp18
bI00
S'\x00\x00\x00\x00\x00\xa0a\xc0\x00\x00\x00\x00\x00 b\xc0'
p19
tp20
bs.